(dp1
S'test'
p2
(lp3
F0.77789086103439331
aF0.75173008441925049
aF0.73300355672836304
aF0.72432583570480347
aF0.72223234176635742
aF0.72124826908111572
aF0.70950227975845337
aF0.6887887716293335
aF0.68717527389526367
aF0.6757429838180542
asS'train'
p4
(lp5
s.